target datalayout = "e-m:e-p270:32:32-p271:32:32-p272:64:64-i64:64-i128:128-f80:128-n8:16:32:64-S128"
target triple = "x86_64-unknown-linux-gnu"

%struct.MemoryRegion = type { %struct.Object, i8, i8, i8, i8, i8, i8, i8, i8, i8, i8, ptr, ptr, ptr, ptr, ptr, ptr, i32, i128, i64, ptr, i64, i8, i8, i8, i8, i8, ptr, i64, i32, %union.anon, %union.anon.0, %union.anon.1, ptr, i32, ptr, ptr, i8 }
%struct.Object = type { ptr, ptr, ptr, i32, ptr }
%union.anon = type { %struct.QTailQLink }
%struct.QTailQLink = type { ptr, ptr }
%union.anon.0 = type { %struct.QTailQLink }
%union.anon.1 = type { %struct.QTailQLink }
%struct.VFIOPCIDevice = type { %struct.PCIDevice, %struct.VFIODevice, %struct.VFIOINTx, i32, ptr, i64, i32, i64, ptr, i32, ptr, ptr, i32, i32, [6 x %struct.VFIOBAR], ptr, ptr, %struct.PCIHostDeviceAddress, %struct.QemuUUID, %struct.EventNotifier, %struct.EventNotifier, ptr, i32, i32, i32, i32, i32, i32, i32, i32, i32, i32, i32, i8, i8, i8, i8, i8, i8, i8, i8, i8, i8, i8, i8, i8, i8, i32, i8, i8, ptr, %struct.Notifier }
%struct.PCIDevice = type { %struct.DeviceState, i8, i8, ptr, ptr, ptr, ptr, ptr, i32, %struct.PCIReqIDCache, [64 x i8], [7 x %struct.PCIIORegion], %struct.AddressSpace, %struct.MemoryRegion, %struct.MemoryRegion, ptr, ptr, [3 x ptr], i8, i8, i32, i8, i32, ptr, ptr, ptr, ptr, ptr, ptr, %struct.MemoryRegion, %struct.MemoryRegion, %struct.MemoryRegion, ptr, i8, i32, i8, %struct.PCIExpressDevice, ptr, ptr, i32, i8, %struct.MemoryRegion, i32, ptr, ptr, ptr, ptr, ptr, i32 }
%struct.DeviceState = type { %struct.Object, ptr, ptr, i8, i8, i64, ptr, i32, i8, ptr, %struct.NamedGPIOListHead, %struct.NamedClockListHead, %struct.BusStateHead, i32, i32, i32, %struct.ResettableState, ptr, %struct.MemReentrancyGuard }
%struct.NamedGPIOListHead = type { ptr }
%struct.NamedClockListHead = type { ptr }
%struct.BusStateHead = type { ptr }
%struct.ResettableState = type { i32, i8, i8 }
%struct.MemReentrancyGuard = type { i8 }
%struct.PCIReqIDCache = type { ptr, i32 }
%struct.PCIIORegion = type { i64, i64, i8, ptr, ptr }
%struct.AddressSpace = type { %struct.rcu_head, ptr, ptr, ptr, i32, i32, ptr, %union.anon.4, %union.anon.5 }
%struct.rcu_head = type { ptr, ptr }
%union.anon.4 = type { %struct.QTailQLink }
%union.anon.5 = type { %struct.QTailQLink }
%struct.PCIExpressDevice = type { i8, i8, i8, i16, %struct.PCIEAERLog, i16, i16, i16, %struct.PCIESriovPF, %struct.PCIESriovVF }
%struct.PCIEAERLog = type { i16, i16, ptr }
%struct.PCIESriovPF = type { i16, [7 x i8], ptr, ptr }
%struct.PCIESriovVF = type { ptr, i16 }
%struct.VFIODevice = type { %struct.anon.6, %struct.anon.7, %struct.anon.8, ptr, ptr, ptr, ptr, ptr, i32, i32, i8, i8, i8, i8, i32, ptr, i32, i32, i32, ptr, ptr, i32, i8, i8 }
%struct.anon.6 = type { ptr, ptr }
%struct.anon.7 = type { ptr, ptr }
%struct.anon.8 = type { ptr, ptr }
%struct.VFIOINTx = type { i8, i8, i8, %struct.EventNotifier, %struct.EventNotifier, %struct.PCIINTxRoute, i32, ptr }
%struct.PCIINTxRoute = type { i32, i32 }
%struct.VFIOBAR = type { %struct.VFIORegion, ptr, i64, i8, i8, i8, %struct.anon.9 }
%struct.VFIORegion = type { ptr, i64, ptr, i64, i32, i32, ptr, i8 }
%struct.anon.9 = type { ptr }
%struct.PCIHostDeviceAddress = type { i32, i32, i32, i32 }
%struct.QemuUUID = type { %union.anon.10 }
%union.anon.10 = type { %struct.anon.11 }
%struct.anon.11 = type { i32, i16, i16, i8, i8, [6 x i8] }
%struct.EventNotifier = type { i32, i32, i8 }
%struct.Notifier = type { ptr, %struct.anon.12 }
%struct.anon.12 = type { ptr, ptr }
%struct.timeval = type { i64, i64 }

@trace_events_enabled_count = external global i32, align 4
@message_with_timestamp = external global i8, align 1
@qemu_loglevel = external global i32, align 4
@_TRACE_VFIO_INTX_DISABLE_DSTATE = external global i16, align 2
@.str.32 = private unnamed_addr constant [38 x i8] c"%d@%zu.%06zu:vfio_intx_disable  (%s)\0A\00", align 1
@.str.33 = private unnamed_addr constant [25 x i8] c"vfio_intx_disable  (%s)\0A\00", align 1

; Function Attrs: nounwind sspstrong uwtable
define internal zeroext i1 @qemu_loglevel_mask(i32 noundef %mask) #0 {
entry:
  %mask.addr = alloca i32, align 4
  store i32 %mask, ptr %mask.addr, align 4
  %0 = load i32, ptr @qemu_loglevel, align 4
  %1 = load i32, ptr %mask.addr, align 4
  %and = and i32 %0, %1
  %cmp = icmp ne i32 %and, 0
  ret i1 %cmp
}

; Function Attrs: nounwind sspstrong uwtable
define internal void @_nocheck__trace_vfio_intx_disable(ptr noundef %name) #0 {
entry:
  %name.addr = alloca ptr, align 8
  %_now = alloca %struct.timeval, align 8
  store ptr %name, ptr %name.addr, align 8
  %0 = load i32, ptr @trace_events_enabled_count, align 4
  %tobool = icmp ne i32 %0, 0
  %lnot = xor i1 %tobool, true
  %lnot1 = xor i1 %lnot, true
  %lnot.ext = zext i1 %lnot1 to i32
  %conv = sext i32 %lnot.ext to i64
  %tobool2 = icmp ne i64 %conv, 0
  br i1 %tobool2, label %land.lhs.true, label %if.end11

land.lhs.true:                                    ; preds = %entry
  %1 = load i16, ptr @_TRACE_VFIO_INTX_DISABLE_DSTATE, align 2
  %conv3 = zext i16 %1 to i32
  %tobool4 = icmp ne i32 %conv3, 0
  br i1 %tobool4, label %land.lhs.true5, label %if.end11

land.lhs.true5:                                   ; preds = %land.lhs.true
  %call = call zeroext i1 @qemu_loglevel_mask(i32 noundef 32768)
  br i1 %call, label %if.then, label %if.end11

if.then:                                          ; preds = %land.lhs.true5
  %2 = load i8, ptr @message_with_timestamp, align 1
  %tobool7 = trunc i8 %2 to i1
  br i1 %tobool7, label %if.then8, label %if.else

if.then8:                                         ; preds = %if.then
  %call9 = call i32 @gettimeofday(ptr noundef %_now, ptr noundef null) #16
  %call10 = call i32 @qemu_get_thread_id()
  %tv_sec = getelementptr inbounds %struct.timeval, ptr %_now, i32 0, i32 0
  %3 = load i64, ptr %tv_sec, align 8
  %tv_usec = getelementptr inbounds %struct.timeval, ptr %_now, i32 0, i32 1
  %4 = load i64, ptr %tv_usec, align 8
  %5 = load ptr, ptr %name.addr, align 8
  call void (ptr, ...) @qemu_log(ptr noundef @.str.32, i32 noundef %call10, i64 noundef %3, i64 noundef %4, ptr noundef %5)
  br label %if.end

if.else:                                          ; preds = %if.then
  %6 = load ptr, ptr %name.addr, align 8
  call void (ptr, ...) @qemu_log(ptr noundef @.str.33, ptr noundef %6)
  br label %if.end

if.end:                                           ; preds = %if.else, %if.then8
  br label %if.end11

if.end11:                                         ; preds = %if.end, %land.lhs.true5, %land.lhs.true, %entry
  ret void
}

; Function Attrs: nounwind sspstrong uwtable
define internal void @trace_vfio_intx_disable(ptr noundef %name) #0 {
entry:
  %name.addr = alloca ptr, align 8
  store ptr %name, ptr %name.addr, align 8
  %0 = load ptr, ptr %name.addr, align 8
  call void @_nocheck__trace_vfio_intx_disable(ptr noundef %0)
  ret void
}

; Function Attrs: nounwind sspstrong uwtable
define internal void @vfio_mmap_set_enabled(ptr noundef %vdev, i1 noundef zeroext %enabled) #0 {
entry:
  %vdev.addr = alloca ptr, align 8
  %enabled.addr = alloca i8, align 1
  %i = alloca i32, align 4
  store ptr %vdev, ptr %vdev.addr, align 8
  %frombool = zext i1 %enabled to i8
  store i8 %frombool, ptr %enabled.addr, align 1
  store i32 0, ptr %i, align 4
  br label %for.cond

for.cond:                                         ; preds = %for.inc, %entry
  %0 = load i32, ptr %i, align 4
  %cmp = icmp slt i32 %0, 6
  br i1 %cmp, label %for.body, label %for.end

for.body:                                         ; preds = %for.cond
  %1 = load ptr, ptr %vdev.addr, align 8
  %bars = getelementptr inbounds %struct.VFIOPCIDevice, ptr %1, i32 0, i32 14
  %2 = load i32, ptr %i, align 4
  %idxprom = sext i32 %2 to i64
  %arrayidx = getelementptr [6 x %struct.VFIOBAR], ptr %bars, i64 0, i64 %idxprom
  %region = getelementptr inbounds %struct.VFIOBAR, ptr %arrayidx, i32 0, i32 0
  %3 = load i8, ptr %enabled.addr, align 1
  %tobool = trunc i8 %3 to i1
  call void @vfio_region_mmaps_set_enabled(ptr noundef %region, i1 noundef zeroext %tobool)
  br label %for.inc

for.inc:                                          ; preds = %for.body
  %4 = load i32, ptr %i, align 4
  %inc = add i32 %4, 1
  store i32 %inc, ptr %i, align 4
  br label %for.cond, !llvm.loop !14

for.end:                                          ; preds = %for.cond
  ret void
}

; Function Attrs: nounwind sspstrong uwtable
define internal void @pci_irq_deassert(ptr noundef %pci_dev) #0 {
entry:
  %pci_dev.addr = alloca ptr, align 8
  store ptr %pci_dev, ptr %pci_dev.addr, align 8
  %0 = load ptr, ptr %pci_dev.addr, align 8
  call void @pci_set_irq(ptr noundef %0, i32 noundef 0)
  ret void
}

; Function Attrs: nounwind sspstrong uwtable
define internal void @vfio_intx_disable_kvm(ptr noundef %vdev) #0 {
entry:
  %vdev.addr = alloca ptr, align 8
  store ptr %vdev, ptr %vdev.addr, align 8
  ret void
}

; Function Attrs: nounwind sspstrong uwtable
define internal void @vfio_intx_disable(ptr noundef %vdev) #0 {
entry:
  %vdev.addr = alloca ptr, align 8
  %fd = alloca i32, align 4
  store ptr %vdev, ptr %vdev.addr, align 8
  %0 = load ptr, ptr %vdev.addr, align 8
  %intx = getelementptr inbounds %struct.VFIOPCIDevice, ptr %0, i32 0, i32 2
  %mmap_timer = getelementptr inbounds %struct.VFIOINTx, ptr %intx, i32 0, i32 7
  %1 = load ptr, ptr %mmap_timer, align 8
  call void @timer_del(ptr noundef %1)
  %2 = load ptr, ptr %vdev.addr, align 8
  call void @vfio_intx_disable_kvm(ptr noundef %2)
  %3 = load ptr, ptr %vdev.addr, align 8
  %vbasedev = getelementptr inbounds %struct.VFIOPCIDevice, ptr %3, i32 0, i32 1
  call void @vfio_disable_irqindex(ptr noundef %vbasedev, i32 noundef 0)
  %4 = load ptr, ptr %vdev.addr, align 8
  %intx1 = getelementptr inbounds %struct.VFIOPCIDevice, ptr %4, i32 0, i32 2
  %pending = getelementptr inbounds %struct.VFIOINTx, ptr %intx1, i32 0, i32 0
  store i8 0, ptr %pending, align 8
  %5 = load ptr, ptr %vdev.addr, align 8
  %pdev = getelementptr inbounds %struct.VFIOPCIDevice, ptr %5, i32 0, i32 0
  call void @pci_irq_deassert(ptr noundef %pdev)
  %6 = load ptr, ptr %vdev.addr, align 8
  call void @vfio_mmap_set_enabled(ptr noundef %6, i1 noundef zeroext true)
  %7 = load ptr, ptr %vdev.addr, align 8
  %intx2 = getelementptr inbounds %struct.VFIOPCIDevice, ptr %7, i32 0, i32 2
  %interrupt = getelementptr inbounds %struct.VFIOINTx, ptr %intx2, i32 0, i32 3
  %call = call i32 @event_notifier_get_fd(ptr noundef %interrupt)
  store i32 %call, ptr %fd, align 4
  %8 = load i32, ptr %fd, align 4
  %9 = load ptr, ptr %vdev.addr, align 8
  call void @qemu_set_fd_handler(i32 noundef %8, ptr noundef null, ptr noundef null, ptr noundef %9)
  %10 = load ptr, ptr %vdev.addr, align 8
  %intx3 = getelementptr inbounds %struct.VFIOPCIDevice, ptr %10, i32 0, i32 2
  %interrupt4 = getelementptr inbounds %struct.VFIOINTx, ptr %intx3, i32 0, i32 3
  call void @event_notifier_cleanup(ptr noundef %interrupt4)
  %11 = load ptr, ptr %vdev.addr, align 8
  %interrupt5 = getelementptr inbounds %struct.VFIOPCIDevice, ptr %11, i32 0, i32 13
  store i32 0, ptr %interrupt5, align 4
  %12 = load ptr, ptr %vdev.addr, align 8
  %vbasedev6 = getelementptr inbounds %struct.VFIOPCIDevice, ptr %12, i32 0, i32 1
  %name = getelementptr inbounds %struct.VFIODevice, ptr %vbasedev6, i32 0, i32 6
  %13 = load ptr, ptr %name, align 8
  call void @trace_vfio_intx_disable(ptr noundef %13)
  ret void
}