; Function Attrs: nounwind sspstrong uwtable
define internal fastcc void @vfio_intx_disable(ptr noundef %vdev) unnamed_addr #0 {
entry:
  %_now.i.i = alloca %struct.timeval, align 8
  %intx = getelementptr inbounds nuw i8, ptr %vdev, i64 2760
  %mmap_timer = getelementptr inbounds nuw i8, ptr %vdev, i64 2800
  %0 = load ptr, ptr %mmap_timer, align 8
  tail call void @timer_del(ptr noundef %0) #23
  %vbasedev = getelementptr inbounds nuw i8, ptr %vdev, i64 2608
  tail call void @vfio_disable_irqindex(ptr noundef nonnull %vbasedev, i32 noundef 0) #23
  store i8 0, ptr %intx, align 8
  tail call void @pci_set_irq(ptr noundef %vdev, i32 noundef 0) #23
  %bars.i = getelementptr inbounds nuw i8, ptr %vdev, i64 2888
  br label %for.body.i

for.body.i:                                       ; preds = %for.body.i, %entry
  %indvars.iv.i = phi i64 [ 0, %entry ], [ %indvars.iv.next.i, %for.body.i ]
  %arrayidx.i = getelementptr [6 x %struct.VFIOBAR], ptr %bars.i, i64 0, i64 %indvars.iv.i
  tail call void @vfio_region_mmaps_set_enabled(ptr noundef %arrayidx.i, i1 noundef zeroext true) #23
  %indvars.iv.next.i = add nuw nsw i64 %indvars.iv.i, 1
  %exitcond.not.i = icmp eq i64 %indvars.iv.next.i, 6
  br i1 %exitcond.not.i, label %vfio_mmap_set_enabled.exit, label %for.body.i, !llvm.loop !16

vfio_mmap_set_enabled.exit:                       ; preds = %for.body.i
  %interrupt = getelementptr inbounds nuw i8, ptr %vdev, i64 2764
  %call = tail call i32 @event_notifier_get_fd(ptr noundef nonnull %interrupt) #23
  tail call void @qemu_set_fd_handler(i32 noundef %call, ptr noundef null, ptr noundef null, ptr noundef %vdev) #23
  tail call void @event_notifier_cleanup(ptr noundef nonnull %interrupt) #23
  %interrupt5 = getelementptr inbounds nuw i8, ptr %vdev, i64 2884
  store i32 0, ptr %interrupt5, align 4
  %name = getelementptr inbounds nuw i8, ptr %vdev, i64 2680
  %1 = load ptr, ptr %name, align 8
  call void @llvm.lifetime.start.p0(i64 16, ptr nonnull %_now.i.i)
  %2 = load i32, ptr @trace_events_enabled_count, align 4
  %tobool.i.i = icmp ne i32 %2, 0
  %3 = load i16, ptr @_TRACE_VFIO_INTX_DISABLE_DSTATE, align 2
  %tobool4.i.i = icmp ne i16 %3, 0
  %or.cond.i.i = select i1 %tobool.i.i, i1 %tobool4.i.i, i1 false
  br i1 %or.cond.i.i, label %land.lhs.true5.i.i, label %trace_vfio_intx_disable.exit

land.lhs.true5.i.i:                               ; preds = %vfio_mmap_set_enabled.exit
  %4 = load i32, ptr @qemu_loglevel, align 4
  %and.i.i.i = and i32 %4, 32768
  %cmp.i.not.i.i = icmp eq i32 %and.i.i.i, 0
  br i1 %cmp.i.not.i.i, label %trace_vfio_intx_disable.exit, label %if.then.i.i

if.then.i.i:                                      ; preds = %land.lhs.true5.i.i
  %5 = load i8, ptr @message_with_timestamp, align 1
  %tobool7.i.i = trunc i8 %5 to i1
  br i1 %tobool7.i.i, label %if.then8.i.i, label %if.else.i.i

if.then8.i.i:                                     ; preds = %if.then.i.i
  %call9.i.i = call i32 @gettimeofday(ptr noundef nonnull %_now.i.i, ptr noundef null) #23
  %call10.i.i = tail call i32 @qemu_get_thread_id() #23
  %6 = load i64, ptr %_now.i.i, align 8
  %tv_usec.i.i = getelementptr inbounds nuw i8, ptr %_now.i.i, i64 8
  %7 = load i64, ptr %tv_usec.i.i, align 8
  tail call void (ptr, ...) @qemu_log(ptr noundef nonnull @.str.32, i32 noundef %call10.i.i, i64 noundef %6, i64 noundef %7, ptr noundef %1) #23
  br label %trace_vfio_intx_disable.exit

if.else.i.i:                                      ; preds = %if.then.i.i
  tail call void (ptr, ...) @qemu_log(ptr noundef nonnull @.str.33, ptr noundef %1) #23
  br label %trace_vfio_intx_disable.exit

trace_vfio_intx_disable.exit:                     ; preds = %vfio_mmap_set_enabled.exit, %land.lhs.true5.i.i, %if.then8.i.i, %if.else.i.i
  call void @llvm.lifetime.end.p0(i64 16, ptr nonnull %_now.i.i)
  ret void
}